Certificate:
    Data:
        Version: 3 (0x2)
        Serial Number: 1 (0x1)
    Signature Algorithm: sha1WithRSAEncryption
        Issuer: C=US, ST=Unset, L=Unset, O=Unset, CN=www.example.com
        Validity
            Not Before: Nov 21 05:32:40 2013 GMT
            Not After : Nov 19 05:32:40 2023 GMT
        Subject: C=US, ST=Unset, O=Unset, CN=www.example.com
        Subject Public Key Info:
            Public Key Algorithm: rsaEncryption
                Public-Key: (2048 bit)
                Modulus:
                    00:b5:2c:c9:4b:fb:76:73:b6:3a:63:ba:f7:50:37:
                    0e:bf:77:69:8e:73:16:7c:52:fd:3c:4e:89:e0:28:
                    cd:9a:83:e3:99:a4:e0:e6:0b:95:21:31:89:b3:49:
                    54:79:ba:73:5d:5c:00:97:87:c6:ca:c9:2e:f4:bb:
                    b0:ff:3c:6d:fd:13:47:99:f5:74:61:80:a7:c5:1f:
                    b7:e0:63:e8:f4:61:53:b8:70:3d:ce:e2:47:67:d6:
                    3a:e2:e8:14:a0:4d:34:54:8c:95:a2:d8:61:2e:ff:
                    c2:84:f0:2c:86:6b:fd:be:4f:99:28:4f:b1:e2:83:
                    71:74:8a:7a:82:4c:05:b0:65:ce:bd:0f:3a:10:7b:
                    01:5c:37:a8:5d:1e:26:be:15:5d:26:67:78:b1:99:
                    af:0e:50:f9:77:12:62:10:c2:70:8e:ef:f7:6d:e9:
                    bd:dc:93:bd:1d:ee:a7:52:48:f3:86:a8:eb:77:64:
                    30:b9:40:7c:c7:df:b2:2c:5c:21:8f:a5:4e:c5:42:
                    a4:e7:45:0c:15:33:4f:65:95:28:80:4d:b4:18:94:
                    03:07:ab:c6:46:f7:73:ef:82:30:36:3d:79:f3:fd:
                    40:ed:98:0f:18:eb:1d:3f:d8:55:99:b1:c8:58:91:
                    01:f9:5b:58:0c:d6:67:53:d4:21:0d:b4:94:2d:3b:
                    47:05
                Exponent: 65537 (0x10001)
        X509v3 extensions:
            X509v3 Basic Constraints: 
                CA:FALSE
            X509v3 Subject Key Identifier: 
                88:CF:33:9A:EE:57:37:AF:91:23:B8:F5:92:1C:BF:92:68:DE:3F:F3
            X509v3 Authority Key Identifier: 
                keyid:36:6E:C5:A0:04:B7:82:09:A7:99:1F:13:EE:92:0B:05:3B:07:A7:26

    Signature Algorithm: sha1WithRSAEncryption
         27:12:63:2e:70:1d:69:d8:c8:93:cb:f1:ee:96:ce:ee:8e:37:
         89:c8:0c:ed:fe:60:c1:27:05:ce:dd:6d:50:ad:99:50:c7:23:
         8b:ca:9d:b0:dc:da:21:13:e4:94:20:c1:27:18:9d:6f:97:4e:
         da:55:1d:b3:80:0e:7a:75:3d:cb:ca:12:9c:83:cf:33:bc:b0:
         9e:94:73:25:47:70:84:c8:85:a9:c3:10:44:4c:de:d1:f9:81:
         50:8d:09:e8:a1:73:07:3a:80:f7:76:e4:32:12:94:c9:33:3b:
         b1:56:86:45:b1:fa:13:25:34:8e:d4:6e:d1:cc:d9:27:bf:65:
         c3:b4:66:aa:6f:c4:6f:50:4f:50:9b:ff:54:f8:89:93:c1:28:
         1a:9a:0a:5b:12:1a:2d:20:f6:74:e7:63:b8:5e:65:d8:fd:5c:
         05:61:a6:98:45:f2:27:f3:6b:70:cb:ea:96:6f:71:dc:3d:a8:
         f7:2f:85:3b:e8:ab:76:c7:a2:90:f6:69:1a:10:ad:fc:5c:c0:
         1a:98:fc:98:54:de:7c:e9:46:94:cc:3f:1a:8b:b7:3e:ca:97:
         83:d2:00:5c:67:72:75:1d:eb:89:cd:69:2b:c9:06:a3:10:47:
         07:42:eb:48:76:14:6b:c5:89:68:70:ec:e1:fe:c7:e4:f3:8d:
         5b:8f:6c:e7
-----BEGIN CERTIFICATE-----
MIIDZjCCAk6gAwIBAgIBATANBgkqhkiG9w0BAQUFADBXMQswCQYDVQQGEwJVUzEO
MAwGA1UECAwFVW5zZXQxDjAMBgNVBAcMBVVuc2V0MQ4wDAYDVQQKDAVVbnNldDEY
MBYGA1UEAwwPd3d3LmV4YW1wbGUuY29tMB4XDTEzMTEyMTA1MzI0MFoXDTIzMTEx
OTA1MzI0MFowRzELMAkGA1UEBhMCVVMxDjAMBgNVBAgMBVVuc2V0MQ4wDAYDVQQK
DAVVbnNldDEYMBYGA1UEAwwPd3d3LmV4YW1wbGUuY29tMIIBIjANBgkqhkiG9w0B
AQEFAAOCAQ8AMIIBCgKCAQEAtSzJS/t2c7Y6Y7r3UDcOv3dpjnMWfFL9PE6J4CjN
moPjmaTg5guVITGJs0lUebpzXVwAl4fGysku9Luw/zxt/RNHmfV0YYCnxR+34GPo
9GFTuHA9zuJHZ9Y64ugUoE00VIyVothhLv/ChPAshmv9vk+ZKE+x4oNxdIp6gkwF
sGXOvQ86EHsBXDeoXR4mvhVdJmd4sZmvDlD5dxJiEMJwju/3bem93JO9He6nUkjz
hqjrd2QwuUB8x9+yLFwhj6VOxUKk50UMFTNPZZUogE20GJQDB6vGRvdz74IwNj15
8/1A7ZgPGOsdP9hVmbHIWJEB+VtYDNZnU9QhDbSULTtHBQIDAQABo00wSzAJBgNV
HRMEAjAAMB0GA1UdDgQWBBSIzzOa7lc3r5EjuPWSHL+SaN4/8zAfBgNVHSMEGDAW
gBQ2bsWgBLeCCaeZHxPukgsFOwenJjANBgkqhkiG9w0BAQUFAAOCAQEAJxJjLnAd
adjIk8vx7pbO7o43icgM7f5gwScFzt1tUK2ZUMcji8qdsNzaIRPklCDBJxidb5dO
2lUds4AOenU9y8oSnIPPM7ywnpRzJUdwhMiFqcMQREze0fmBUI0J6KFzBzqA93bk
MhKUyTM7sVaGRbH6EyU0jtRu0czZJ79lw7Rmqm/Eb1BPUJv/VPiJk8EoGpoKWxIa
LSD2dOdjuF5l2P1cBWGmmEXyJ/NrcMvqlm9x3D2o9y+FO+irdseikPZpGhCt/FzA
Gpj8mFTefOlGlMw/Gou3PsqXg9IAXGdydR3ric1pK8kGoxBHB0LrSHYUa8WJaHDs
4f7H5PONW49s5w==
-----END CERTIFICATE-----
